; Function Attrs: nounwind uwtable
define hidden noundef i32 @EVP_CIPHER_CTX_cleanup(ptr noundef %0) local_unnamed_addr #0 {
  %2 = load ptr, ptr %0, align 8, !tbaa !6
  %.not = icmp eq ptr %2, null
  br i1 %.not, label %14, label %3

3:                                                ; preds = %1
  %4 = getelementptr inbounds nuw i8, ptr %2, i64 48
  %5 = load ptr, ptr %4, align 8, !tbaa !13
  %.not9 = icmp eq ptr %5, null
  br i1 %.not9, label %7, label %6

6:                                                ; preds = %3
  tail call void %5(ptr noundef nonnull %0) #14
  %.pre = load ptr, ptr %0, align 8, !tbaa !6
  br label %7

7:                                                ; preds = %6, %3
  %8 = phi ptr [ %.pre, %6 ], [ %2, %3 ]
  %9 = getelementptr inbounds nuw i8, ptr %0, i64 16
  %10 = load ptr, ptr %9, align 8, !tbaa !15
  %11 = getelementptr inbounds nuw i8, ptr %8, i64 16
  %12 = load i32, ptr %11, align 8, !tbaa !16
  %13 = zext i32 %12 to i64
  tail call void @OPENSSL_cleanse(ptr noundef %10, i64 noundef %13) #14
  br label %14

14:                                               ; preds = %7, %1
  %15 = getelementptr inbounds nuw i8, ptr %0, i64 16
  %16 = load ptr, ptr %15, align 8, !tbaa !15
  tail call void @free(ptr noundef %16) #14
  tail call void @llvm.memset.p0.i64(ptr noundef nonnull align 8 dereferenceable(152) %0, i8 0, i64 152, i1 false)
  ret i32 1
}